; Function Attrs: nounwind uwtable
define dso_local i32 @LZ4_compressHC2_limitedOutput_withStateHC(ptr noundef %0, ptr noundef %1, ptr noundef %2, i32 noundef %3, i32 noundef %4, i32 noundef %5) local_unnamed_addr #4 {
  %7 = alloca i32, align 4
  %8 = icmp ne ptr %0, null
  %9 = ptrtoint ptr %0 to i64
  %10 = and i64 %9, 7
  %.not.i.i = icmp eq i64 %10, 0
  %or.cond10.i.i = and i1 %8, %.not.i.i
  br i1 %or.cond10.i.i, label %LZ4_compress_HC_extStateHC_fastReset.exit.i, label %LZ4_compress_HC_extStateHC.exit

LZ4_compress_HC_extStateHC_fastReset.exit.i:      ; preds = %6
  tail call void @llvm.memset.p0.i64(ptr noundef nonnull align 8 dereferenceable(262192) %0, i8 0, i64 262184, i1 false)
  %11 = getelementptr inbounds nuw i8, ptr %0, i64 262180
  call void @llvm.lifetime.start.p0(i64 4, ptr nonnull %7)
  store i32 %3, ptr %7, align 4, !tbaa !17
  %12 = getelementptr inbounds nuw i8, ptr %0, i64 262184
  store ptr null, ptr %12, align 8, !tbaa !32
  %13 = icmp slt i32 %5, 1
  %14 = tail call i32 @llvm.umin.i32(i32 %5, i32 12)
  %15 = trunc nuw nsw i32 %14 to i16
  %16 = select i1 %13, i16 9, i16 %15
  store i16 %16, ptr %11, align 4, !tbaa !26
  %17 = getelementptr inbounds nuw i8, ptr %0, i64 262144
  %18 = getelementptr inbounds nuw i8, ptr %0, i64 262152
  %19 = getelementptr inbounds nuw i8, ptr %0, i64 262168
  %20 = getelementptr inbounds nuw i8, ptr %0, i64 262176
  store i32 65536, ptr %20, align 8, !tbaa !33
  store ptr %1, ptr %18, align 8, !tbaa !13
  store ptr %1, ptr %17, align 8, !tbaa !4
  %21 = getelementptr inbounds nuw i8, ptr %0, i64 262160
  store ptr %1, ptr %21, align 8, !tbaa !34
  store i32 65536, ptr %19, align 8, !tbaa !14
  %22 = getelementptr inbounds nuw i8, ptr %0, i64 262172
  store i32 65536, ptr %22, align 4, !tbaa !35
  %23 = tail call i32 @LZ4_compressBound(i32 noundef %3) #18
  %24 = icmp slt i32 %4, %23
  %..i.i = zext i1 %24 to i32
  %25 = call fastcc i32 @LZ4HC_compress_generic(ptr noundef nonnull %0, ptr noundef %1, ptr noundef %2, ptr noundef nonnull %7, i32 noundef %4, i32 noundef %5, i32 noundef %..i.i)
  call void @llvm.lifetime.end.p0(i64 4, ptr nonnull %7)
  br label %LZ4_compress_HC_extStateHC.exit

LZ4_compress_HC_extStateHC.exit:                  ; preds = %6, %LZ4_compress_HC_extStateHC_fastReset.exit.i
  %.0.i = phi i32 [ %25, %LZ4_compress_HC_extStateHC_fastReset.exit.i ], [ 0, %6 ]
  ret i32 %.0.i
}